; Function Attrs: inlinehint nounwind uwtable
define internal fastcc void @lxb_html_tree_insertion_mode_in_body_li_closed(ptr noundef %0, ptr noundef %1) unnamed_addr #3 {
  %3 = tail call ptr @lxb_html_tree_element_in_scope(ptr noundef %0, i64 noundef 113, i64 noundef 2, i32 noundef 16) #6
  %4 = icmp eq ptr %3, null
  br i1 %4, label %5, label %6

5:                                                ; preds = %2
  tail call void @lxb_html_tree_parse_error(ptr noundef %0, ptr noundef %1, i32 noundef 1) #6
  br label %23

6:                                                ; preds = %2
  tail call void @lxb_html_tree_generate_implied_end_tags(ptr noundef %0, i64 noundef 113, i64 noundef 2) #6
  %7 = getelementptr i8, ptr %0, i64 32
  %.val = load ptr, ptr %7, align 8, !tbaa !33
  %8 = getelementptr inbounds nuw i8, ptr %.val, i64 16
  %9 = load i64, ptr %8, align 8, !tbaa !34
  %10 = icmp eq i64 %9, 0
  br i1 %10, label %lxb_html_tree_current_node.exit, label %11

11:                                               ; preds = %6
  %12 = load ptr, ptr %.val, align 8, !tbaa !36
  %13 = getelementptr ptr, ptr %12, i64 %9
  %14 = getelementptr i8, ptr %13, i64 -8
  %15 = load ptr, ptr %14, align 8, !tbaa !37
  br label %lxb_html_tree_current_node.exit

lxb_html_tree_current_node.exit:                  ; preds = %6, %11
  %.0.i = phi ptr [ %15, %11 ], [ null, %6 ]
  %16 = getelementptr inbounds nuw i8, ptr %.0.i, i64 8
  %17 = load i64, ptr %16, align 8, !tbaa !38
  %18 = icmp eq i64 %17, 113
  br i1 %18, label %lxb_html_tree_node_is.exit, label %lxb_html_tree_node_is.exit.thread

lxb_html_tree_node_is.exit:                       ; preds = %lxb_html_tree_current_node.exit
  %19 = getelementptr inbounds nuw i8, ptr %.0.i, i64 24
  %20 = load i64, ptr %19, align 8, !tbaa !42
  %21 = icmp eq i64 %20, 2
  br i1 %21, label %22, label %lxb_html_tree_node_is.exit.thread

lxb_html_tree_node_is.exit.thread:                ; preds = %lxb_html_tree_current_node.exit, %lxb_html_tree_node_is.exit
  tail call void @lxb_html_tree_parse_error(ptr noundef nonnull %0, ptr noundef %1, i32 noundef 22) #6
  br label %22

22:                                               ; preds = %lxb_html_tree_node_is.exit.thread, %lxb_html_tree_node_is.exit
  tail call void @lxb_html_tree_open_elements_pop_until_tag_id(ptr noundef nonnull %0, i64 noundef 113, i64 noundef 2, i1 noundef zeroext true) #6
  br label %23

23:                                               ; preds = %22, %5
  ret void
}